target datalayout = "e-m:e-p270:32:32-p271:32:32-p272:64:64-i64:64-i128:128-f80:128-n8:16:32:64-S128"
target triple = "x86_64-pc-linux-gnu"

%"class.casadi::Function" = type { %"class.casadi::SharedObject" }
%"class.casadi::SharedObject" = type { %"class.casadi::GenericShared" }
%"class.casadi::GenericShared" = type { ptr }

; Function Attrs: mustprogress uwtable
define void @_ZN6casadi10rootfinderERKNSt7__cxx1112basic_stringIcSt11char_traitsIcESaIcEEES7_RKSt3mapIS5_NS_6MatrixINS_6SXElemEEESt4lessIS5_ESaISt4pairIS6_SB_EEERKS8_IS5_NS_11GenericTypeESD_SaISE_IS6_SK_EEE(ptr dead_on_unwind noalias writable sret(%"class.casadi::Function") align 8 %0, ptr noundef nonnull align 8 dereferenceable(32) %1, ptr noundef nonnull align 8 dereferenceable(32) %2, ptr noundef nonnull align 8 dereferenceable(48) %3, ptr noundef nonnull align 8 dereferenceable(48) %4) #6 personality ptr @__gxx_personality_v0 {
  %6 = alloca ptr, align 8
  %7 = alloca ptr, align 8
  %8 = alloca ptr, align 8
  %9 = alloca ptr, align 8
  %10 = alloca ptr, align 8
  %11 = alloca %"class.casadi::Function", align 8
  %12 = alloca ptr, align 8
  %13 = alloca i32, align 4
  store ptr %0, ptr %6, align 8
  store ptr %1, ptr %7, align 8, !tbaa !13
  store ptr %2, ptr %8, align 8, !tbaa !13
  store ptr %3, ptr %9, align 8, !tbaa !51
  store ptr %4, ptr %10, align 8, !tbaa !53
  %14 = load ptr, ptr %7, align 8, !tbaa !13
  %15 = load ptr, ptr %8, align 8, !tbaa !13
  call void @llvm.lifetime.start.p0(i64 8, ptr %11) #3
  %16 = load ptr, ptr %9, align 8, !tbaa !51
  %17 = load ptr, ptr %10, align 8, !tbaa !53
  call void @_ZN6casadi10Rootfinder13create_oracleINS_6MatrixINS_6SXElemEEEEENS_8FunctionERKSt3mapINSt7__cxx1112basic_stringIcSt11char_traitsIcESaIcEEET_St4lessISC_ESaISt4pairIKSC_SD_EEERKS6_ISC_NS_11GenericTypeESF_SaISG_ISH_SN_EEE(ptr dead_on_unwind writable sret(%"class.casadi::Function") align 8 %11, ptr noundef nonnull align 8 dereferenceable(48) %16, ptr noundef nonnull align 8 dereferenceable(48) %17)
  %18 = load ptr, ptr %10, align 8, !tbaa !53
  invoke void @_ZN6casadi10rootfinderERKNSt7__cxx1112basic_stringIcSt11char_traitsIcESaIcEEES7_RKNS_8FunctionERKSt3mapIS5_NS_11GenericTypeESt4lessIS5_ESaISt4pairIS6_SC_EEE(ptr dead_on_unwind writable sret(%"class.casadi::Function") align 8 %0, ptr noundef nonnull align 8 dereferenceable(32) %14, ptr noundef nonnull align 8 dereferenceable(32) %15, ptr noundef nonnull align 8 dereferenceable(8) %11, ptr noundef nonnull align 8 dereferenceable(48) %18)
          to label %19 unwind label %20

19:                                               ; preds = %5
  call void @_ZN6casadi8FunctionD1Ev(ptr noundef nonnull align 8 dereferenceable(8) %11) #3
  call void @llvm.lifetime.end.p0(i64 8, ptr %11) #3
  ret void

20:                                               ; preds = %5
  %21 = landingpad { ptr, i32 }
          cleanup
  %22 = extractvalue { ptr, i32 } %21, 0
  store ptr %22, ptr %12, align 8
  %23 = extractvalue { ptr, i32 } %21, 1
  store i32 %23, ptr %13, align 4
  call void @_ZN6casadi8FunctionD1Ev(ptr noundef nonnull align 8 dereferenceable(8) %11) #3
  call void @llvm.lifetime.end.p0(i64 8, ptr %11) #3
  br label %24

24:                                               ; preds = %20
  %25 = load ptr, ptr %12, align 8
  %26 = load i32, ptr %13, align 4
  %27 = insertvalue { ptr, i32 } poison, ptr %25, 0
  %28 = insertvalue { ptr, i32 } %27, i32 %26, 1
  resume { ptr, i32 } %28
}