; Function Attrs: mustprogress uwtable
define void @_ZN6casadi10rootfinderERKNSt7__cxx1112basic_stringIcSt11char_traitsIcESaIcEEES7_RKSt3mapIS5_NS_6MatrixINS_6SXElemEEESt4lessIS5_ESaISt4pairIS6_SB_EEERKS8_IS5_NS_11GenericTypeESD_SaISE_IS6_SK_EEE(ptr dead_on_unwind noalias writable sret(%"class.casadi::Function") align 8 %0, ptr noundef nonnull align 8 dereferenceable(32) %1, ptr noundef nonnull align 8 dereferenceable(32) %2, ptr noundef nonnull align 8 dereferenceable(48) %3, ptr noundef nonnull align 8 dereferenceable(48) %4) local_unnamed_addr #4 personality ptr @__gxx_personality_v0 {
  %6 = alloca %"class.casadi::Function", align 8
  call void @llvm.lifetime.start.p0(i64 8, ptr nonnull %6) #30
  call void @_ZN6casadi10Rootfinder13create_oracleINS_6MatrixINS_6SXElemEEEEENS_8FunctionERKSt3mapINSt7__cxx1112basic_stringIcSt11char_traitsIcESaIcEEET_St4lessISC_ESaISt4pairIKSC_SD_EEERKS6_ISC_NS_11GenericTypeESF_SaISG_ISH_SN_EEE(ptr dead_on_unwind nonnull writable sret(%"class.casadi::Function") align 8 %6, ptr noundef nonnull align 8 dereferenceable(48) %3, ptr noundef nonnull align 8 dereferenceable(48) %4)
  invoke void @_ZN6casadi10rootfinderERKNSt7__cxx1112basic_stringIcSt11char_traitsIcESaIcEEES7_RKNS_8FunctionERKSt3mapIS5_NS_11GenericTypeESt4lessIS5_ESaISt4pairIS6_SC_EEE(ptr dead_on_unwind writable sret(%"class.casadi::Function") align 8 %0, ptr noundef nonnull align 8 dereferenceable(32) %1, ptr noundef nonnull align 8 dereferenceable(32) %2, ptr noundef nonnull align 8 dereferenceable(8) %6, ptr noundef nonnull align 8 dereferenceable(48) %4)
          to label %7 unwind label %8

7:                                                ; preds = %5
  call void @_ZN6casadi8FunctionD1Ev(ptr noundef nonnull align 8 dereferenceable(8) %6) #30
  call void @llvm.lifetime.end.p0(i64 8, ptr nonnull %6) #30
  ret void

8:                                                ; preds = %5
  %9 = landingpad { ptr, i32 }
          cleanup
  call void @_ZN6casadi8FunctionD1Ev(ptr noundef nonnull align 8 dereferenceable(8) %6) #30
  call void @llvm.lifetime.end.p0(i64 8, ptr nonnull %6) #30
  resume { ptr, i32 } %9
}